Certificate:
    Data:
        Version: 3 (0x2)
        Serial Number: 1 (0x1)
    Signature Algorithm: sha256WithRSAEncryption
        Issuer: DC=io, DC=c9, DC=nana-pki-raizan, O=OwnCA PKI, OU=OwnCA Root CA, CN=OwnCA Root CA
        Validity
            Not Before: May  5 19:55:48 2015 GMT
            Not After : May  4 19:55:48 2025 GMT
        Subject: DC=io, DC=c9, DC=nana-pki-raizan, O=OwnCA PKI, OU=OwnCA Root CA, CN=OwnCA Root CA
        Subject Public Key Info:
            Public Key Algorithm: rsaEncryption
                Public-Key: (2048 bit)
                Modulus:
                    00:dc:f3:57:a2:40:cf:d0:f4:d8:b1:21:da:50:e1:
                    72:32:16:4e:a4:48:65:b3:f2:11:7b:4c:f2:77:32:
                    b8:7d:9c:b7:38:84:22:6e:ea:6b:e8:ff:e2:47:eb:
                    9c:f4:87:9e:9f:71:d6:07:6d:32:64:fa:cf:b4:0e:
                    c1:77:82:3b:ae:eb:e2:fb:cb:4b:d6:fe:d1:6c:9d:
                    8a:db:b1:13:b0:d2:1a:98:27:47:a0:54:af:e7:14:
                    4c:ba:f6:44:ae:44:a4:4c:93:c6:15:9b:33:5d:90:
                    a4:f9:f3:9b:43:4f:a1:cd:6b:24:fb:51:a2:c4:6d:
                    6f:de:82:f7:a0:26:f5:b5:4a:c4:45:8a:29:c1:0f:
                    e6:df:f3:fc:2f:d1:31:8b:5c:9c:4f:65:65:3c:26:
                    e0:4c:f0:ae:49:3a:f8:91:35:45:7b:df:2d:4a:50:
                    c2:e7:7d:10:3a:51:bd:c1:55:76:e7:6c:85:0c:d0:
                    04:44:1d:22:0e:5d:f6:5a:4c:be:06:65:af:dc:92:
                    21:4e:de:4f:6a:bf:d2:62:9a:57:7b:d3:32:fd:62:
                    a4:42:19:ff:24:e5:a5:a4:b5:43:69:91:fe:d4:06:
                    f0:c7:9a:af:9c:f8:d4:b7:dc:e7:24:af:b0:52:6c:
                    73:f5:39:d6:3b:12:fd:4f:b6:f5:12:93:30:9d:d1:
                    15:8b
                Exponent: 65537 (0x10001)
        X509v3 extensions:
            X509v3 Key Usage: critical
                Certificate Sign, CRL Sign
            X509v3 Basic Constraints: critical
                CA:TRUE
            X509v3 Subject Key Identifier: 
                19:00:AC:5E:42:3B:E0:A7:F1:63:A6:76:35:A3:5A:E8:B2:51:49:FD
            X509v3 Authority Key Identifier: 
                keyid:19:00:AC:5E:42:3B:E0:A7:F1:63:A6:76:35:A3:5A:E8:B2:51:49:FD

    Signature Algorithm: sha256WithRSAEncryption
         68:29:79:8f:5c:82:01:7d:76:20:1c:80:85:c0:19:ac:6f:54:
         b3:04:32:58:02:07:92:c3:ad:83:8b:b2:d1:af:3e:0a:65:a0:
         3c:a3:5b:55:ea:f3:7e:bb:70:72:e0:98:28:0d:77:d7:3f:92:
         72:bb:44:b3:46:6f:82:0e:57:70:28:ef:fb:89:b5:6c:9e:b3:
         1c:6a:15:50:a2:ac:1e:31:c0:79:11:1d:49:94:86:bf:0d:39:
         dd:f6:21:72:47:ab:62:3e:0e:5a:d8:00:87:c6:0e:32:76:e3:
         c0:fe:f0:a8:a8:f1:4f:f7:d4:ce:64:05:78:e2:99:58:92:f9:
         7a:9b:62:dc:33:99:9e:62:3d:50:e1:82:f4:5c:65:01:3a:7b:
         75:ef:e0:ad:a9:50:0f:dd:dd:4d:db:b5:6e:fb:a8:57:a4:ec:
         b8:27:fa:33:92:12:10:f9:48:e4:7c:c4:06:36:21:13:87:89:
         60:13:e9:ca:1f:dc:61:80:55:f5:7f:34:bb:82:d3:40:79:e5:
         de:c8:a5:a8:16:2f:26:b8:b7:a6:41:a5:12:56:dd:ef:e6:ed:
         08:91:50:e2:51:b2:56:30:d8:81:46:94:97:d3:01:5a:ea:ca:
         90:1e:55:58:60:d7:68:a7:b9:5a:dd:de:12:6b:9d:89:32:3c:
         bf:4d:3c:8d
-----BEGIN CERTIFICATE-----
MIID+jCCAuKgAwIBAgIBATANBgkqhkiG9w0BAQsFADCBjTESMBAGCgmSJomT8ixk
ARkWAmlvMRIwEAYKCZImiZPyLGQBGRYCYzkxHzAdBgoJkiaJk/IsZAEZFg9uYW5h
LXBraS1yYWl6YW4xEjAQBgNVBAoMCU93bkNBIFBLSTEWMBQGA1UECwwNT3duQ0Eg
Um9vdCBDQTEWMBQGA1UEAwwNT3duQ0EgUm9vdCBDQTAeFw0xNTA1MDUxOTU1NDha
Fw0yNTA1MDQxOTU1NDhaMIGNMRIwEAYKCZImiZPyLGQBGRYCaW8xEjAQBgoJkiaJ
k/IsZAEZFgJjOTEfMB0GCgmSJomT8ixkARkWD25hbmEtcGtpLXJhaXphbjESMBAG
A1UECgwJT3duQ0EgUEtJMRYwFAYDVQQLDA1Pd25DQSBSb290IENBMRYwFAYDVQQD
DA1Pd25DQSBSb290IENBMIIBIjANBgkqhkiG9w0BAQEFAAOCAQ8AMIIBCgKCAQEA
3PNXokDP0PTYsSHaUOFyMhZOpEhls/IRe0zydzK4fZy3OIQibupr6P/iR+uc9Iee
n3HWB20yZPrPtA7Bd4I7ruvi+8tL1v7RbJ2K27ETsNIamCdHoFSv5xRMuvZErkSk
TJPGFZszXZCk+fObQ0+hzWsk+1GixG1v3oL3oCb1tUrERYopwQ/m3/P8L9Exi1yc
T2VlPCbgTPCuSTr4kTVFe98tSlDC530QOlG9wVV252yFDNAERB0iDl32Wky+BmWv
3JIhTt5Par/SYppXe9My/WKkQhn/JOWlpLVDaZH+1Abwx5qvnPjUt9znJK+wUmxz
9TnWOxL9T7b1EpMwndEViwIDAQABo2MwYTAOBgNVHQ8BAf8EBAMCAQYwDwYDVR0T
AQH/BAUwAwEB/zAdBgNVHQ4EFgQUGQCsXkI74KfxY6Z2NaNa6LJRSf0wHwYDVR0j
BBgwFoAUGQCsXkI74KfxY6Z2NaNa6LJRSf0wDQYJKoZIhvcNAQELBQADggEBAGgp
eY9cggF9diAcgIXAGaxvVLMEMlgCB5LDrYOLstGvPgploDyjW1Xq8367cHLgmCgN
d9c/knK7RLNGb4IOV3Ao7/uJtWyesxxqFVCirB4xwHkRHUmUhr8NOd32IXJHq2I+
DlrYAIfGDjJ248D+8Kio8U/31M5kBXjimViS+XqbYtwzmZ5iPVDhgvRcZQE6e3Xv
4K2pUA/d3U3btW77qFek7Lgn+jOSEhD5SOR8xAY2IROHiWAT6cof3GGAVfV/NLuC
00B55d7IpagWLya4t6ZBpRJW3e/m7QiRUOJRslYw2IFGlJfTAVrqypAeVVhg12in
uVrd3hJrnYkyPL9NPI0=
-----END CERTIFICATE-----
